target datalayout = "e-m:e-p270:32:32-p271:32:32-p272:64:64-i64:64-i128:128-f80:128-n8:16:32:64-S128"
target triple = "x86_64-pc-linux-gnu"

%struct.mi_page_queue_s = type { ptr, ptr, i64 }
%struct.mi_stats_s = type { %struct.mi_stat_count_s, %struct.mi_stat_count_s, %struct.mi_stat_count_s, %struct.mi_stat_count_s, %struct.mi_stat_count_s, %struct.mi_stat_count_s, %struct.mi_stat_count_s, %struct.mi_stat_count_s, %struct.mi_stat_count_s, %struct.mi_stat_count_s, %struct.mi_stat_count_s, %struct.mi_stat_count_s, %struct.mi_stat_count_s, %struct.mi_stat_count_s, %struct.mi_stat_count_s, %struct.mi_stat_counter_s, %struct.mi_stat_counter_s, %struct.mi_stat_counter_s, %struct.mi_stat_counter_s, %struct.mi_stat_counter_s, %struct.mi_stat_counter_s, %struct.mi_stat_counter_s, %struct.mi_stat_counter_s, %struct.mi_stat_counter_s, %struct.mi_stat_counter_s, %struct.mi_stat_counter_s, %struct.mi_stat_counter_s, %struct.mi_stat_counter_s }
%struct.mi_stat_count_s = type { i64, i64, i64, i64 }
%struct.mi_stat_counter_s = type { i64, i64 }
%struct.mi_memid_s = type { %union.anon, i8, i8, i8, i32 }
%union.anon = type { %struct.mi_memid_os_info }
%struct.mi_memid_os_info = type { ptr, i64 }
%struct.mi_segments_tld_s = type { %struct.mi_segment_queue_s, %struct.mi_segment_queue_s, %struct.mi_page_queue_s, i64, i64, i64, i64, i64, ptr, ptr }
%struct.mi_segment_queue_s = type { ptr, ptr }
%struct.mi_heap_s = type { ptr, ptr, i64, i32, i64, [2 x i64], %struct.mi_random_cxt_s, i64, i64, i64, ptr, i8, i8, [129 x ptr], [75 x %struct.mi_page_queue_s] }
%struct.mi_random_cxt_s = type { [16 x i32], [16 x i32], i32, i8 }
%struct.mi_tld_s = type { i64, i8, ptr, ptr, %struct.mi_segments_tld_s, %struct.mi_stats_s }
%struct.mi_thread_data_s = type { %struct.mi_heap_s, %struct.mi_tld_s, %struct.mi_memid_s }

@_mi_heap_default = hidden thread_local(initialexec) global ptr @_mi_heap_empty, align 8
@_mi_stats_main = hidden global %struct.mi_stats_s zeroinitializer, align 64
@td_cache = internal global [32 x ptr] zeroinitializer, align 16
@thread_count = internal global i64 1, align 8

; Function Attrs: nounwind uwtable
define internal void @mi_thread_data_free(ptr noundef %0) #0 {
  %2 = alloca ptr, align 8
  %3 = alloca i32, align 4
  %4 = alloca i32, align 4
  %5 = alloca ptr, align 8
  %6 = alloca ptr, align 8
  %7 = alloca ptr, align 8
  %8 = alloca ptr, align 8
  %9 = alloca i8, align 1
  store ptr %0, ptr %2, align 8, !tbaa !44
  call void @llvm.lifetime.start.p0(i64 4, ptr %3) #12
  store i32 0, ptr %3, align 4, !tbaa !22
  br label %10

10:                                               ; preds = %46, %1
  %11 = load i32, ptr %3, align 4, !tbaa !22
  %12 = icmp slt i32 %11, 32
  br i1 %12, label %14, label %13

13:                                               ; preds = %10
  store i32 2, ptr %4, align 4
  br label %49

14:                                               ; preds = %10
  call void @llvm.lifetime.start.p0(i64 8, ptr %5) #12
  %15 = load i32, ptr %3, align 4, !tbaa !22
  %16 = sext i32 %15 to i64
  %17 = getelementptr inbounds [32 x ptr], ptr @td_cache, i64 0, i64 %16
  %18 = load atomic i64, ptr %17 monotonic, align 8
  store i64 %18, ptr %6, align 8
  %19 = load ptr, ptr %6, align 8, !tbaa !44
  store ptr %19, ptr %5, align 8, !tbaa !44
  %20 = load ptr, ptr %5, align 8, !tbaa !44
  %21 = icmp eq ptr %20, null
  br i1 %21, label %22, label %42

22:                                               ; preds = %14
  call void @llvm.lifetime.start.p0(i64 8, ptr %7) #12
  store ptr null, ptr %7, align 8, !tbaa !44
  %23 = load i32, ptr %3, align 4, !tbaa !22
  %24 = sext i32 %23 to i64
  %25 = getelementptr inbounds [32 x ptr], ptr @td_cache, i64 0, i64 %24
  %26 = load ptr, ptr %2, align 8, !tbaa !44
  store ptr %26, ptr %8, align 8, !tbaa !44
  %27 = load i64, ptr %7, align 8
  %28 = load i64, ptr %8, align 8
  %29 = cmpxchg weak ptr %25, i64 %27, i64 %28 acq_rel acquire, align 8
  %30 = extractvalue { i64, i1 } %29, 0
  %31 = extractvalue { i64, i1 } %29, 1
  br i1 %31, label %33, label %32

32:                                               ; preds = %22
  store i64 %30, ptr %7, align 8
  br label %33

33:                                               ; preds = %32, %22
  %34 = zext i1 %31 to i8
  store i8 %34, ptr %9, align 1, !tbaa !21
  %35 = load i8, ptr %9, align 1, !tbaa !21, !range !28, !noundef !29
  %36 = trunc i8 %35 to i1
  br i1 %36, label %37, label %38

37:                                               ; preds = %33
  store i32 1, ptr %4, align 4
  br label %39

38:                                               ; preds = %33
  store i32 0, ptr %4, align 4
  br label %39

39:                                               ; preds = %38, %37
  call void @llvm.lifetime.end.p0(i64 8, ptr %7) #12
  %40 = load i32, ptr %4, align 4
  switch i32 %40, label %43 [
    i32 0, label %41
  ]

41:                                               ; preds = %39
  br label %42

42:                                               ; preds = %41, %14
  store i32 0, ptr %4, align 4
  br label %43

43:                                               ; preds = %42, %39
  call void @llvm.lifetime.end.p0(i64 8, ptr %5) #12
  %44 = load i32, ptr %4, align 4
  switch i32 %44, label %49 [
    i32 0, label %45
  ]

45:                                               ; preds = %43
  br label %46

46:                                               ; preds = %45
  %47 = load i32, ptr %3, align 4, !tbaa !22
  %48 = add nsw i32 %47, 1
  store i32 %48, ptr %3, align 4, !tbaa !22
  br label %10, !llvm.loop !58

49:                                               ; preds = %43, %13
  call void @llvm.lifetime.end.p0(i64 4, ptr %3) #12
  %50 = load i32, ptr %4, align 4
  switch i32 %50, label %56 [
    i32 2, label %51
    i32 1, label %55
  ]

51:                                               ; preds = %49
  %52 = load ptr, ptr %2, align 8, !tbaa !44
  %53 = load ptr, ptr %2, align 8, !tbaa !44
  %54 = getelementptr inbounds nuw %struct.mi_thread_data_s, ptr %53, i32 0, i32 2
  call void @_mi_os_free(ptr noundef %52, i64 noundef 3920, ptr noundef byval(%struct.mi_memid_s) align 8 %54) #11
  br label %55

55:                                               ; preds = %51, %49
  ret void

56:                                               ; preds = %49
  unreachable
}

; Function Attrs: nounwind uwtable
define hidden void @_mi_heap_set_default_direct(ptr noundef %0) #0 {
  %2 = alloca ptr, align 8
  store ptr %0, ptr %2, align 8, !tbaa !3
  %3 = load ptr, ptr %2, align 8, !tbaa !3
  %4 = call align 8 ptr @llvm.threadlocal.address.p0(ptr align 8 @_mi_heap_default)
  store ptr %3, ptr %4, align 8, !tbaa !3
  %5 = load ptr, ptr %2, align 8, !tbaa !3
  call void @_mi_prim_thread_associate_default_heap(ptr noundef %5) #11
  ret void
}

; Function Attrs: nounwind uwtable
define hidden zeroext i1 @_mi_is_main_thread() #0 {
  %1 = load i64, ptr getelementptr inbounds nuw (%struct.mi_heap_s, ptr @_mi_heap_main, i32 0, i32 2), align 16, !tbaa !16
  %2 = icmp eq i64 %1, 0
  br i1 %2, label %7, label %3

3:                                                ; preds = %0
  %4 = load i64, ptr getelementptr inbounds nuw (%struct.mi_heap_s, ptr @_mi_heap_main, i32 0, i32 2), align 16, !tbaa !16
  %5 = call i64 @_mi_thread_id() #11
  %6 = icmp eq i64 %4, %5
  br label %7

7:                                                ; preds = %3, %0
  %8 = phi i1 [ true, %0 ], [ %6, %3 ]
  ret i1 %8
}

; Function Attrs: inlinehint nounwind uwtable
define internal i64 @_mi_prim_thread_id() #1 {
  %1 = call ptr @llvm.thread.pointer()
  %2 = ptrtoint ptr %1 to i64
  ret i64 %2
}

; Function Attrs: nounwind uwtable
define internal zeroext i1 @_mi_thread_heap_done(ptr noundef %0) #0 {
  %2 = alloca i1, align 1
  %3 = alloca ptr, align 8
  %4 = alloca ptr, align 8
  %5 = alloca ptr, align 8
  store ptr %0, ptr %3, align 8, !tbaa !3
  %6 = load ptr, ptr %3, align 8, !tbaa !3
  %7 = call zeroext i1 @mi_heap_is_initialized(ptr noundef %6) #11
  br i1 %7, label %9, label %8

8:                                                ; preds = %1
  store i1 true, ptr %2, align 1
  br label %56

9:                                                ; preds = %1
  %10 = call zeroext i1 @_mi_is_main_thread() #11
  %11 = select i1 %10, ptr @_mi_heap_main, ptr @_mi_heap_empty
  call void @_mi_heap_set_default_direct(ptr noundef %11) #11
  %12 = load ptr, ptr %3, align 8, !tbaa !3
  %13 = getelementptr inbounds nuw %struct.mi_heap_s, ptr %12, i32 0, i32 0
  %14 = load ptr, ptr %13, align 8, !tbaa !32
  %15 = getelementptr inbounds nuw %struct.mi_tld_s, ptr %14, i32 0, i32 2
  %16 = load ptr, ptr %15, align 8, !tbaa !48
  store ptr %16, ptr %3, align 8, !tbaa !3
  %17 = load ptr, ptr %3, align 8, !tbaa !3
  %18 = call zeroext i1 @mi_heap_is_initialized(ptr noundef %17) #11
  br i1 %18, label %20, label %19

19:                                               ; preds = %9
  store i1 false, ptr %2, align 1
  br label %56

20:                                               ; preds = %9
  call void @llvm.lifetime.start.p0(i64 8, ptr %4) #12
  %21 = load ptr, ptr %3, align 8, !tbaa !3
  %22 = getelementptr inbounds nuw %struct.mi_heap_s, ptr %21, i32 0, i32 0
  %23 = load ptr, ptr %22, align 8, !tbaa !32
  %24 = getelementptr inbounds nuw %struct.mi_tld_s, ptr %23, i32 0, i32 3
  %25 = load ptr, ptr %24, align 8, !tbaa !49
  store ptr %25, ptr %4, align 8, !tbaa !3
  br label %26

26:                                               ; preds = %38, %20
  %27 = load ptr, ptr %4, align 8, !tbaa !3
  %28 = icmp ne ptr %27, null
  br i1 %28, label %29, label %40

29:                                               ; preds = %26
  call void @llvm.lifetime.start.p0(i64 8, ptr %5) #12
  %30 = load ptr, ptr %4, align 8, !tbaa !3
  %31 = getelementptr inbounds nuw %struct.mi_heap_s, ptr %30, i32 0, i32 10
  %32 = load ptr, ptr %31, align 8, !tbaa !51
  store ptr %32, ptr %5, align 8, !tbaa !3
  %33 = load ptr, ptr %4, align 8, !tbaa !3
  %34 = load ptr, ptr %3, align 8, !tbaa !3
  %35 = icmp ne ptr %33, %34
  br i1 %35, label %36, label %38

36:                                               ; preds = %29
  %37 = load ptr, ptr %4, align 8, !tbaa !3
  call void @mi_heap_delete(ptr noundef %37) #11
  br label %38

38:                                               ; preds = %36, %29
  %39 = load ptr, ptr %5, align 8, !tbaa !3
  store ptr %39, ptr %4, align 8, !tbaa !3
  call void @llvm.lifetime.end.p0(i64 8, ptr %5) #12
  br label %26, !llvm.loop !52

40:                                               ; preds = %26
  %41 = load ptr, ptr %3, align 8, !tbaa !3
  %42 = icmp ne ptr %41, @_mi_heap_main
  br i1 %42, label %43, label %45

43:                                               ; preds = %40
  %44 = load ptr, ptr %3, align 8, !tbaa !3
  call void @_mi_heap_collect_abandon(ptr noundef %44) #11
  br label %45

45:                                               ; preds = %43, %40
  %46 = load ptr, ptr %3, align 8, !tbaa !3
  %47 = getelementptr inbounds nuw %struct.mi_heap_s, ptr %46, i32 0, i32 0
  %48 = load ptr, ptr %47, align 8, !tbaa !32
  %49 = getelementptr inbounds nuw %struct.mi_tld_s, ptr %48, i32 0, i32 5
  call void @_mi_stats_done(ptr noundef %49) #11
  %50 = load ptr, ptr %3, align 8, !tbaa !3
  %51 = icmp ne ptr %50, @_mi_heap_main
  br i1 %51, label %52, label %54

52:                                               ; preds = %45
  %53 = load ptr, ptr %3, align 8, !tbaa !3
  call void @mi_thread_data_free(ptr noundef %53) #11
  br label %55

54:                                               ; preds = %45
  br label %55

55:                                               ; preds = %54, %52
  store i1 false, ptr %2, align 1
  call void @llvm.lifetime.end.p0(i64 8, ptr %4) #12
  br label %56

56:                                               ; preds = %55, %19, %8
  %57 = load i1, ptr %2, align 1
  ret i1 %57
}

; Function Attrs: nounwind uwtable
define hidden i64 @_mi_thread_id() #0 {
  %1 = call i64 @_mi_prim_thread_id() #11
  ret i64 %1
}

; Function Attrs: inlinehint nounwind uwtable
define internal zeroext i1 @mi_heap_is_initialized(ptr noundef %0) #1 {
  %2 = alloca ptr, align 8
  store ptr %0, ptr %2, align 8, !tbaa !3
  %3 = load ptr, ptr %2, align 8, !tbaa !3
  %4 = icmp ne ptr %3, null
  br i1 %4, label %5, label %8

5:                                                ; preds = %1
  %6 = load ptr, ptr %2, align 8, !tbaa !3
  %7 = icmp ne ptr %6, @_mi_heap_empty
  br label %8

8:                                                ; preds = %5, %1
  %9 = phi i1 [ false, %1 ], [ %7, %5 ]
  ret i1 %9
}

; Function Attrs: inlinehint nounwind uwtable
define internal ptr @mi_prim_get_default_heap() #1 {
  %1 = call align 8 ptr @llvm.threadlocal.address.p0(ptr align 8 @_mi_heap_default)
  %2 = load ptr, ptr %1, align 8, !tbaa !3
  ret ptr %2
}

; Function Attrs: nounwind uwtable
define hidden void @_mi_thread_done(ptr noundef %0) #0 {
  %2 = alloca ptr, align 8
  %3 = alloca i64, align 8
  %4 = alloca i64, align 8
  store ptr %0, ptr %2, align 8, !tbaa !3
  %5 = load ptr, ptr %2, align 8, !tbaa !3
  %6 = icmp eq ptr %5, null
  br i1 %6, label %7, label %13

7:                                                ; preds = %1
  %8 = call ptr @mi_prim_get_default_heap() #11
  store ptr %8, ptr %2, align 8, !tbaa !3
  %9 = load ptr, ptr %2, align 8, !tbaa !3
  %10 = icmp eq ptr %9, null
  br i1 %10, label %11, label %12

11:                                               ; preds = %7
  br label %30

12:                                               ; preds = %7
  br label %13

13:                                               ; preds = %12, %1
  %14 = load ptr, ptr %2, align 8, !tbaa !3
  %15 = call zeroext i1 @mi_heap_is_initialized(ptr noundef %14) #11
  br i1 %15, label %17, label %16

16:                                               ; preds = %13
  br label %30

17:                                               ; preds = %13
  store i64 1, ptr %3, align 8, !tbaa !8
  %18 = load i64, ptr %3, align 8
  %19 = atomicrmw sub ptr @thread_count, i64 %18 monotonic, align 8
  store i64 %19, ptr %4, align 8
  call void @_mi_stat_decrease(ptr noundef getelementptr inbounds nuw (%struct.mi_stats_s, ptr @_mi_stats_main, i32 0, i32 9), i64 noundef 1) #11
  %20 = load ptr, ptr %2, align 8, !tbaa !3
  %21 = getelementptr inbounds nuw %struct.mi_heap_s, ptr %20, i32 0, i32 2
  %22 = load i64, ptr %21, align 8, !tbaa !16
  %23 = call i64 @_mi_thread_id() #11
  %24 = icmp ne i64 %22, %23
  br i1 %24, label %25, label %26

25:                                               ; preds = %17
  br label %30

26:                                               ; preds = %17
  %27 = load ptr, ptr %2, align 8, !tbaa !3
  %28 = call zeroext i1 @_mi_thread_heap_done(ptr noundef %27) #11
  br i1 %28, label %29, label %30

29:                                               ; preds = %26
  br label %30

30:                                               ; preds = %11, %16, %25, %29, %26
  ret void
}